target datalayout = "e-m:e-p270:32:32-p271:32:32-p272:64:64-i64:64-i128:128-f80:128-n8:16:32:64-S128"
target triple = "x86_64-pc-linux-gnu"

@_ZTIN8nanobind12python_errorE = external constant ptr

; Function Attrs: mustprogress uwtable
define noundef ptr @_ZN8nanobind6detail13module_importEPKc(ptr noundef %0) #12 personality ptr @__gxx_personality_v0 {
  %2 = alloca ptr, align 8
  %3 = alloca ptr, align 8
  %4 = alloca ptr, align 8
  %5 = alloca i32, align 4
  store ptr %0, ptr %2, align 8
  call void @llvm.lifetime.start.p0(i64 8, ptr %3) #20
  %6 = load ptr, ptr %2, align 8
  %7 = call ptr @PyImport_ImportModule(ptr noundef %6)
  store ptr %7, ptr %3, align 8
  %8 = load ptr, ptr %3, align 8
  %9 = icmp ne ptr %8, null
  br i1 %9, label %17, label %10

10:                                               ; preds = %1
  %11 = call ptr @__cxa_allocate_exception(i64 40) #20
  invoke void @_ZN8nanobind12python_errorC1Ev(ptr noundef nonnull align 8 dereferenceable(40) %11)
          to label %12 unwind label %13

12:                                               ; preds = %10
  call void @__cxa_throw(ptr %11, ptr @_ZTIN8nanobind12python_errorE, ptr @_ZN8nanobind12python_errorD1Ev) #21
  unreachable

13:                                               ; preds = %10
  %14 = landingpad { ptr, i32 }
          cleanup
  %15 = extractvalue { ptr, i32 } %14, 0
  store ptr %15, ptr %4, align 8
  %16 = extractvalue { ptr, i32 } %14, 1
  store i32 %16, ptr %5, align 4
  call void @__cxa_free_exception(ptr %11) #20
  call void @llvm.lifetime.end.p0(i64 8, ptr %3) #20
  br label %19

17:                                               ; preds = %1
  %18 = load ptr, ptr %3, align 8
  call void @llvm.lifetime.end.p0(i64 8, ptr %3) #20
  ret ptr %18

19:                                               ; preds = %13
  %20 = load ptr, ptr %4, align 8
  %21 = load i32, ptr %5, align 4
  %22 = insertvalue { ptr, i32 } poison, ptr %20, 0
  %23 = insertvalue { ptr, i32 } %22, i32 %21, 1
  resume { ptr, i32 } %23
}